target datalayout = "e-m:e-p270:32:32-p271:32:32-p272:64:64-i64:64-i128:128-f80:128-n8:16:32:64-S128"
target triple = "x86_64-pc-linux-gnu"

%struct.cmsVEC3 = type { [3 x double] }
%struct.cmsMAT3 = type { [3 x %struct.cmsVEC3] }

; Function Attrs: nounwind uwtable
define hidden void @_cmsVEC3init(ptr noundef %0, double noundef %1, double noundef %2, double noundef %3) #0 {
  %5 = alloca ptr, align 8
  %6 = alloca double, align 8
  %7 = alloca double, align 8
  %8 = alloca double, align 8
  store ptr %0, ptr %5, align 8
  store double %1, ptr %6, align 8
  store double %2, ptr %7, align 8
  store double %3, ptr %8, align 8
  %9 = load double, ptr %6, align 8
  %10 = load ptr, ptr %5, align 8
  %11 = getelementptr inbounds %struct.cmsVEC3, ptr %10, i32 0, i32 0
  %12 = getelementptr inbounds [3 x double], ptr %11, i64 0, i64 0
  store double %9, ptr %12, align 8
  %13 = load double, ptr %7, align 8
  %14 = load ptr, ptr %5, align 8
  %15 = getelementptr inbounds %struct.cmsVEC3, ptr %14, i32 0, i32 0
  %16 = getelementptr inbounds [3 x double], ptr %15, i64 0, i64 1
  store double %13, ptr %16, align 8
  %17 = load double, ptr %8, align 8
  %18 = load ptr, ptr %5, align 8
  %19 = getelementptr inbounds %struct.cmsVEC3, ptr %18, i32 0, i32 0
  %20 = getelementptr inbounds [3 x double], ptr %19, i64 0, i64 2
  store double %17, ptr %20, align 8
  ret void
}

; Function Attrs: nounwind uwtable
define hidden void @_cmsMAT3identity(ptr noundef %0) #0 {
  %2 = alloca ptr, align 8
  store ptr %0, ptr %2, align 8
  %3 = load ptr, ptr %2, align 8
  %4 = getelementptr inbounds %struct.cmsMAT3, ptr %3, i32 0, i32 0
  %5 = getelementptr inbounds [3 x %struct.cmsVEC3], ptr %4, i64 0, i64 0
  call void @_cmsVEC3init(ptr noundef %5, double noundef 1.000000e+00, double noundef 0.000000e+00, double noundef 0.000000e+00)
  %6 = load ptr, ptr %2, align 8
  %7 = getelementptr inbounds %struct.cmsMAT3, ptr %6, i32 0, i32 0
  %8 = getelementptr inbounds [3 x %struct.cmsVEC3], ptr %7, i64 0, i64 1
  call void @_cmsVEC3init(ptr noundef %8, double noundef 0.000000e+00, double noundef 1.000000e+00, double noundef 0.000000e+00)
  %9 = load ptr, ptr %2, align 8
  %10 = getelementptr inbounds %struct.cmsMAT3, ptr %9, i32 0, i32 0
  %11 = getelementptr inbounds [3 x %struct.cmsVEC3], ptr %10, i64 0, i64 2
  call void @_cmsVEC3init(ptr noundef %11, double noundef 0.000000e+00, double noundef 0.000000e+00, double noundef 1.000000e+00)
  ret void
}